target datalayout = "e-m:e-p270:32:32-p271:32:32-p272:64:64-i64:64-i128:128-f80:128-n8:16:32:64-S128"
target triple = "x86_64-unknown-linux-gnu"

%class.btChunk = type { i32, i32, ptr, i32, i32 }

; Function Attrs: mustprogress uwtable
define dso_local void @_ZNK11btRigidBody21serializeSingleObjectEP12btSerializer(ptr noundef nonnull align 8 dereferenceable(744) %this, ptr noundef %serializer) unnamed_addr #2 align 2 {
entry:
  %this.addr = alloca ptr, align 8
  %serializer.addr = alloca ptr, align 8
  %chunk = alloca ptr, align 8
  %structType = alloca ptr, align 8
  store ptr %this, ptr %this.addr, align 8
  store ptr %serializer, ptr %serializer.addr, align 8
  %this1 = load ptr, ptr %this.addr, align 8
  %0 = load ptr, ptr %serializer.addr, align 8
  %vtable = load ptr, ptr %this1, align 8
  %vfn = getelementptr inbounds ptr, ptr %vtable, i64 4
  %1 = load ptr, ptr %vfn, align 8
  %call = call noundef i32 %1(ptr noundef nonnull align 8 dereferenceable(744) %this1)
  %conv = sext i32 %call to i64
  %vtable2 = load ptr, ptr %0, align 8
  %vfn3 = getelementptr inbounds ptr, ptr %vtable2, i64 4
  %2 = load ptr, ptr %vfn3, align 8
  %call4 = call noundef ptr %2(ptr noundef nonnull align 8 dereferenceable(8) %0, i64 noundef %conv, i32 noundef 1)
  store ptr %call4, ptr %chunk, align 8
  %3 = load ptr, ptr %chunk, align 8
  %m_oldPtr = getelementptr inbounds %class.btChunk, ptr %3, i32 0, i32 2
  %4 = load ptr, ptr %m_oldPtr, align 8
  %5 = load ptr, ptr %serializer.addr, align 8
  %vtable5 = load ptr, ptr %this1, align 8
  %vfn6 = getelementptr inbounds ptr, ptr %vtable5, i64 5
  %6 = load ptr, ptr %vfn6, align 8
  %call7 = call noundef ptr %6(ptr noundef nonnull align 8 dereferenceable(744) %this1, ptr noundef %4, ptr noundef %5)
  store ptr %call7, ptr %structType, align 8
  %7 = load ptr, ptr %serializer.addr, align 8
  %8 = load ptr, ptr %chunk, align 8
  %9 = load ptr, ptr %structType, align 8
  %vtable8 = load ptr, ptr %7, align 8
  %vfn9 = getelementptr inbounds ptr, ptr %vtable8, i64 5
  %10 = load ptr, ptr %vfn9, align 8
  call void %10(ptr noundef nonnull align 8 dereferenceable(8) %7, ptr noundef %8, ptr noundef %9, i32 noundef 1497645650, ptr noundef %this1)
  ret void
}